; Function Attrs: inlinehint mustprogress nounwind uwtable
define internal void @_ZN9grpc_core12_GLOBAL__N_16GrpcLb6PickerD2Ev(ptr noundef nonnull readonly align 8 captures(none) dereferenceable(40) %0) unnamed_addr #16 align 2 personality ptr @__gxx_personality_v0 {
  %2 = getelementptr inbounds nuw i8, ptr %0, i64 32
  %3 = load ptr, ptr %2, align 8, !tbaa !252
  %.not.i = icmp eq ptr %3, null
  br i1 %.not.i, label %_ZN9grpc_core13RefCountedPtrINS_17GrpcLbClientStatsEED2Ev.exit, label %4

4:                                                ; preds = %1
  %5 = getelementptr inbounds nuw i8, ptr %3, i64 8
  %6 = atomicrmw sub ptr %5, i64 1 acq_rel, align 8
  %7 = icmp eq i64 %6, 1
  br i1 %7, label %8, label %_ZN9grpc_core13RefCountedPtrINS_17GrpcLbClientStatsEED2Ev.exit, !prof !74

8:                                                ; preds = %4
  tail call void @_ZNK9grpc_core11UnrefDeleteclIKNS_17GrpcLbClientStatsEEEvPT_(ptr noundef nonnull align 8 dereferenceable(16) %3, ptr noundef nonnull align 8 dereferenceable(16) %3)
  br label %_ZN9grpc_core13RefCountedPtrINS_17GrpcLbClientStatsEED2Ev.exit

_ZN9grpc_core13RefCountedPtrINS_17GrpcLbClientStatsEED2Ev.exit: ; preds = %1, %4, %8
  %9 = getelementptr inbounds nuw i8, ptr %0, i64 24
  %10 = load ptr, ptr %9, align 8, !tbaa !545
  %.not.i1 = icmp eq ptr %10, null
  br i1 %.not.i1, label %_ZN9grpc_core13RefCountedPtrINS_19LoadBalancingPolicy16SubchannelPickerEED2Ev.exit, label %11

11:                                               ; preds = %_ZN9grpc_core13RefCountedPtrINS_17GrpcLbClientStatsEED2Ev.exit
  %12 = getelementptr inbounds nuw i8, ptr %10, i64 8
  %13 = atomicrmw add ptr %12, i64 -4294967295 acq_rel, align 8
  %.mask.i.i = and i64 %13, -4294967296
  %14 = icmp eq i64 %.mask.i.i, 4294967296
  br i1 %14, label %15, label %.noexc.i, !prof !74

15:                                               ; preds = %11
  %16 = load ptr, ptr %10, align 8, !tbaa !6
  %17 = getelementptr inbounds nuw i8, ptr %16, i64 16
  %18 = load ptr, ptr %17, align 8
  invoke void %18(ptr noundef nonnull align 8 dereferenceable(16) %10)
          to label %.noexc.i unwind label %25

.noexc.i:                                         ; preds = %15, %11
  %19 = atomicrmw sub ptr %12, i64 1 acq_rel, align 8
  %20 = icmp eq i64 %19, 1
  br i1 %20, label %21, label %_ZN9grpc_core13RefCountedPtrINS_19LoadBalancingPolicy16SubchannelPickerEED2Ev.exit, !prof !74

21:                                               ; preds = %.noexc.i
  %22 = load ptr, ptr %10, align 8, !tbaa !6
  %23 = getelementptr inbounds nuw i8, ptr %22, i64 8
  %24 = load ptr, ptr %23, align 8
  tail call void %24(ptr noundef nonnull align 8 dereferenceable(16) %10) #42
  br label %_ZN9grpc_core13RefCountedPtrINS_19LoadBalancingPolicy16SubchannelPickerEED2Ev.exit

25:                                               ; preds = %15
  %26 = landingpad { ptr, i32 }
          catch ptr null
  %27 = extractvalue { ptr, i32 } %26, 0
  tail call void @__clang_call_terminate(ptr %27) #45
  unreachable

_ZN9grpc_core13RefCountedPtrINS_19LoadBalancingPolicy16SubchannelPickerEED2Ev.exit: ; preds = %_ZN9grpc_core13RefCountedPtrINS_17GrpcLbClientStatsEED2Ev.exit, %.noexc.i, %21
  %28 = getelementptr inbounds nuw i8, ptr %0, i64 16
  %.val = load ptr, ptr %28, align 8, !tbaa !204
  %.not.i2 = icmp eq ptr %.val, null
  br i1 %.not.i2, label %_ZN9grpc_core13RefCountedPtrINS_12_GLOBAL__N_16GrpcLb10ServerlistEED2Ev.exit, label %29

29:                                               ; preds = %_ZN9grpc_core13RefCountedPtrINS_19LoadBalancingPolicy16SubchannelPickerEED2Ev.exit
  %30 = getelementptr inbounds nuw i8, ptr %.val, i64 8
  %31 = atomicrmw sub ptr %30, i64 1 acq_rel, align 8
  %32 = icmp eq i64 %31, 1
  br i1 %32, label %33, label %_ZN9grpc_core13RefCountedPtrINS_12_GLOBAL__N_16GrpcLb10ServerlistEED2Ev.exit, !prof !74

33:                                               ; preds = %29
  tail call fastcc void @_ZNK9grpc_core11UnrefDeleteclIKNS_12_GLOBAL__N_16GrpcLb10ServerlistEEEvPT_(ptr noundef nonnull align 8 dereferenceable(16) %.val)
  br label %_ZN9grpc_core13RefCountedPtrINS_12_GLOBAL__N_16GrpcLb10ServerlistEED2Ev.exit

_ZN9grpc_core13RefCountedPtrINS_12_GLOBAL__N_16GrpcLb10ServerlistEED2Ev.exit: ; preds = %_ZN9grpc_core13RefCountedPtrINS_19LoadBalancingPolicy16SubchannelPickerEED2Ev.exit, %29, %33
  ret void
}